; ModuleID = 'source-C-CXX/36/485.c'
source_filename = "source-C-CXX/36/485.c"
target datalayout = "e-m:e-p270:32:32-p271:32:32-p272:64:64-i64:64-f80:128-n8:16:32:64-S128"
target triple = "x86_64-pc-linux-gnu"

@.str = private unnamed_addr constant [3 x i8] c"%d\00", align 1
@.str.1 = private unnamed_addr constant [3 x i8] c"%s\00", align 1
@.str.2 = private unnamed_addr constant [4 x i8] c"%c\0A\00", align 1
@str = private unnamed_addr constant [3 x i8] c"no\00", align 1

; Function Attrs: nofree nounwind sspstrong uwtable
define dso_local i32 @main() local_unnamed_addr #0 {
  %1 = alloca i32, align 4
  %2 = alloca [100 x i8], align 16
  %3 = bitcast i32* %1 to i8*
  call void @llvm.lifetime.start.p0i8(i64 4, i8* nonnull %3) #4
  %4 = getelementptr inbounds [100 x i8], [100 x i8]* %2, i64 0, i64 0
  call void @llvm.lifetime.start.p0i8(i64 100, i8* nonnull %4) #4
  %5 = call i32 (i8*, ...) @__isoc99_scanf(i8* getelementptr inbounds ([3 x i8], [3 x i8]* @.str, i64 0, i64 0), i32* nonnull %1)
  %6 = load i32, i32* %1, align 4, !tbaa !5
  %7 = icmp slt i32 %6, 1
  br i1 %7, label %41, label %8

8:                                                ; preds = %0, %37
  %9 = phi i32 [ %38, %37 ], [ 1, %0 ]
  %10 = call i32 (i8*, ...) @__isoc99_scanf(i8* getelementptr inbounds ([3 x i8], [3 x i8]* @.str.1, i64 0, i64 0), i8* nonnull %4)
  %11 = load i8, i8* %4, align 16
  %12 = icmp eq i8 %11, 0
  br i1 %12, label %35, label %13

13:                                               ; preds = %8, %30
  %14 = phi i64 [ %31, %30 ], [ 0, %8 ]
  %15 = phi i8 [ %33, %30 ], [ %11, %8 ]
  br label %20

16:                                               ; preds = %20
  %17 = getelementptr inbounds [100 x i8], [100 x i8]* %2, i64 0, i64 %26
  %18 = load i8, i8* %17, align 1, !tbaa !9
  %19 = icmp eq i8 %18, 0
  br i1 %19, label %27, label %20, !llvm.loop !10

20:                                               ; preds = %13, %16
  %21 = phi i64 [ 0, %13 ], [ %26, %16 ]
  %22 = phi i8 [ %11, %13 ], [ %18, %16 ]
  %23 = icmp ne i8 %15, %22
  %24 = icmp eq i64 %21, %14
  %25 = select i1 %23, i1 true, i1 %24
  %26 = add nuw i64 %21, 1
  br i1 %25, label %16, label %30

27:                                               ; preds = %16
  %28 = sext i8 %15 to i32
  %29 = call i32 (i8*, ...) @printf(i8* nonnull dereferenceable(1) getelementptr inbounds ([4 x i8], [4 x i8]* @.str.2, i64 0, i64 0), i32 %28)
  br label %37

30:                                               ; preds = %20
  %31 = add nuw i64 %14, 1
  %32 = getelementptr inbounds [100 x i8], [100 x i8]* %2, i64 0, i64 %31
  %33 = load i8, i8* %32, align 1, !tbaa !9
  %34 = icmp eq i8 %33, 0
  br i1 %34, label %35, label %13, !llvm.loop !12

35:                                               ; preds = %30, %8
  %36 = call i32 @puts(i8* nonnull dereferenceable(1) getelementptr inbounds ([3 x i8], [3 x i8]* @str, i64 0, i64 0))
  br label %37

37:                                               ; preds = %27, %35
  %38 = add nuw nsw i32 %9, 1
  %39 = load i32, i32* %1, align 4, !tbaa !5
  %40 = icmp slt i32 %9, %39
  br i1 %40, label %8, label %41, !llvm.loop !13

41:                                               ; preds = %37, %0
  call void @llvm.lifetime.end.p0i8(i64 100, i8* nonnull %4) #4
  call void @llvm.lifetime.end.p0i8(i64 4, i8* nonnull %3) #4
  ret i32 0
}

; Function Attrs: argmemonly mustprogress nofree nosync nounwind willreturn
declare void @llvm.lifetime.start.p0i8(i64 immarg, i8* nocapture) #1

; Function Attrs: nofree nounwind
declare noundef i32 @__isoc99_scanf(i8* nocapture noundef readonly, ...) local_unnamed_addr #2

; Function Attrs: nofree nounwind
declare noundef i32 @printf(i8* nocapture noundef readonly, ...) local_unnamed_addr #2

; Function Attrs: argmemonly mustprogress nofree nosync nounwind willreturn
declare void @llvm.lifetime.end.p0i8(i64 immarg, i8* nocapture) #1

; Function Attrs: nofree nounwind
declare noundef i32 @puts(i8* nocapture noundef readonly) local_unnamed_addr #3


!llvm.module.flags = !{!0, !1, !2, !3}
!llvm.ident = !{!4}

!0 = !{i32 1, !"wchar_size", i32 4}
!1 = !{i32 7, !"PIC Level", i32 2}
!2 = !{i32 7, !"PIE Level", i32 2}
!3 = !{i32 7, !"uwtable", i32 1}
!4 = !{!"clang version 13.0.0"}
!5 = !{!6, !6, i64 0}
!6 = !{!"int", !7, i64 0}
!7 = !{!"omnipotent char", !8, i64 0}
!8 = !{!"Simple C/C++ TBAA"}
!9 = !{!7, !7, i64 0}
!10 = distinct !{!10, !11}
!11 = !{!"llvm.loop.mustprogress"}
!12 = distinct !{!12, !11}
!13 = distinct !{!13, !11}
